target datalayout = "e-m:e-p270:32:32-p271:32:32-p272:64:64-i64:64-i128:128-f80:128-n8:16:32:64-S128"
target triple = "x86_64-pc-linux-gnu"

%struct.Curl_ssl_scache = type { ptr, i64, i32, i64 }
%struct.Curl_ssl_scache_peer = type { ptr, ptr, ptr, ptr, %struct.Curl_llist, ptr, ptr, [32 x i8], [32 x i8], i64, i64, i8 }
%struct.Curl_llist = type { ptr, ptr, ptr, i64 }

@Curl_cfree = external global ptr, align 8
@Curl_ccalloc = external global ptr, align 8

; Function Attrs: nounwind uwtable
define hidden i32 @Curl_ssl_scache_create(i64 noundef %0, i64 noundef %1, ptr noundef %2) #0 {
  %4 = alloca i32, align 4
  %5 = alloca i64, align 8
  %6 = alloca i64, align 8
  %7 = alloca ptr, align 8
  %8 = alloca ptr, align 8
  %9 = alloca ptr, align 8
  %10 = alloca i64, align 8
  %11 = alloca i32, align 4
  store i64 %0, ptr %5, align 8, !tbaa !8
  store i64 %1, ptr %6, align 8, !tbaa !8
  store ptr %2, ptr %7, align 8, !tbaa !29
  call void @llvm.lifetime.start.p0(i64 8, ptr %8) #6
  call void @llvm.lifetime.start.p0(i64 8, ptr %9) #6
  call void @llvm.lifetime.start.p0(i64 8, ptr %10) #6
  %12 = load ptr, ptr %7, align 8, !tbaa !29
  store ptr null, ptr %12, align 8, !tbaa !31
  %13 = load ptr, ptr @Curl_ccalloc, align 8, !tbaa !14
  %14 = load i64, ptr %5, align 8, !tbaa !8
  %15 = call ptr %13(i64 noundef %14, i64 noundef 168)
  store ptr %15, ptr %9, align 8, !tbaa !33
  %16 = load ptr, ptr %9, align 8, !tbaa !33
  %17 = icmp ne ptr %16, null
  br i1 %17, label %19, label %18

18:                                               ; preds = %3
  store i32 27, ptr %4, align 4
  store i32 1, ptr %11, align 4
  br label %64

19:                                               ; preds = %3
  %20 = load ptr, ptr @Curl_ccalloc, align 8, !tbaa !14
  %21 = call ptr %20(i64 noundef 1, i64 noundef 32)
  store ptr %21, ptr %8, align 8, !tbaa !31
  %22 = load ptr, ptr %8, align 8, !tbaa !31
  %23 = icmp ne ptr %22, null
  br i1 %23, label %27, label %24

24:                                               ; preds = %19
  %25 = load ptr, ptr @Curl_cfree, align 8, !tbaa !14
  %26 = load ptr, ptr %9, align 8, !tbaa !33
  call void %25(ptr noundef %26)
  store i32 27, ptr %4, align 4
  store i32 1, ptr %11, align 4
  br label %64

27:                                               ; preds = %19
  %28 = load ptr, ptr %8, align 8, !tbaa !31
  %29 = getelementptr inbounds nuw %struct.Curl_ssl_scache, ptr %28, i32 0, i32 2
  store i32 86400, ptr %29, align 8, !tbaa !35
  %30 = load i64, ptr %5, align 8, !tbaa !8
  %31 = load ptr, ptr %8, align 8, !tbaa !31
  %32 = getelementptr inbounds nuw %struct.Curl_ssl_scache, ptr %31, i32 0, i32 1
  store i64 %30, ptr %32, align 8, !tbaa !37
  %33 = load ptr, ptr %9, align 8, !tbaa !33
  %34 = load ptr, ptr %8, align 8, !tbaa !31
  %35 = getelementptr inbounds nuw %struct.Curl_ssl_scache, ptr %34, i32 0, i32 0
  store ptr %33, ptr %35, align 8, !tbaa !38
  %36 = load ptr, ptr %8, align 8, !tbaa !31
  %37 = getelementptr inbounds nuw %struct.Curl_ssl_scache, ptr %36, i32 0, i32 3
  store i64 1, ptr %37, align 8, !tbaa !39
  store i64 0, ptr %10, align 8, !tbaa !8
  br label %38

38:                                               ; preds = %58, %27
  %39 = load i64, ptr %10, align 8, !tbaa !8
  %40 = load ptr, ptr %8, align 8, !tbaa !31
  %41 = getelementptr inbounds nuw %struct.Curl_ssl_scache, ptr %40, i32 0, i32 1
  %42 = load i64, ptr %41, align 8, !tbaa !37
  %43 = icmp ult i64 %39, %42
  br i1 %43, label %44, label %61

44:                                               ; preds = %38
  %45 = load i64, ptr %6, align 8, !tbaa !8
  %46 = load ptr, ptr %8, align 8, !tbaa !31
  %47 = getelementptr inbounds nuw %struct.Curl_ssl_scache, ptr %46, i32 0, i32 0
  %48 = load ptr, ptr %47, align 8, !tbaa !38
  %49 = load i64, ptr %10, align 8, !tbaa !8
  %50 = getelementptr inbounds nuw %struct.Curl_ssl_scache_peer, ptr %48, i64 %49
  %51 = getelementptr inbounds nuw %struct.Curl_ssl_scache_peer, ptr %50, i32 0, i32 9
  store i64 %45, ptr %51, align 8, !tbaa !40
  %52 = load ptr, ptr %8, align 8, !tbaa !31
  %53 = getelementptr inbounds nuw %struct.Curl_ssl_scache, ptr %52, i32 0, i32 0
  %54 = load ptr, ptr %53, align 8, !tbaa !38
  %55 = load i64, ptr %10, align 8, !tbaa !8
  %56 = getelementptr inbounds nuw %struct.Curl_ssl_scache_peer, ptr %54, i64 %55
  %57 = getelementptr inbounds nuw %struct.Curl_ssl_scache_peer, ptr %56, i32 0, i32 4
  call void @Curl_llist_init(ptr noundef %57, ptr noundef @cf_ssl_scache_sesssion_ldestroy)
  br label %58

58:                                               ; preds = %44
  %59 = load i64, ptr %10, align 8, !tbaa !8
  %60 = add i64 %59, 1
  store i64 %60, ptr %10, align 8, !tbaa !8
  br label %38, !llvm.loop !43

61:                                               ; preds = %38
  %62 = load ptr, ptr %8, align 8, !tbaa !31
  %63 = load ptr, ptr %7, align 8, !tbaa !29
  store ptr %62, ptr %63, align 8, !tbaa !31
  store i32 0, ptr %4, align 4
  store i32 1, ptr %11, align 4
  br label %64

64:                                               ; preds = %61, %24, %18
  call void @llvm.lifetime.end.p0(i64 8, ptr %10) #6
  call void @llvm.lifetime.end.p0(i64 8, ptr %9) #6
  call void @llvm.lifetime.end.p0(i64 8, ptr %8) #6
  %65 = load i32, ptr %4, align 4
  ret i32 %65
}