; Function Attrs: nounwind uwtable
define hidden range(i32 0, 28) i32 @Curl_ssl_scache_create(i64 noundef %0, i64 noundef %1, ptr noundef writeonly captures(none) initializes((0, 8)) %2) local_unnamed_addr #0 {
  store ptr null, ptr %2, align 8, !tbaa !24
  %4 = load ptr, ptr @Curl_ccalloc, align 8, !tbaa !3
  %5 = tail call ptr %4(i64 noundef %0, i64 noundef 168) #9
  %.not = icmp eq ptr %5, null
  br i1 %.not, label %21, label %6

6:                                                ; preds = %3
  %7 = load ptr, ptr @Curl_ccalloc, align 8, !tbaa !3
  %8 = tail call ptr %7(i64 noundef 1, i64 noundef 32) #9
  %.not24 = icmp eq ptr %8, null
  br i1 %.not24, label %9, label %11

9:                                                ; preds = %6
  %10 = load ptr, ptr @Curl_cfree, align 8, !tbaa !3
  tail call void %10(ptr noundef nonnull %5) #9
  br label %21

11:                                               ; preds = %6
  %12 = getelementptr inbounds nuw i8, ptr %8, i64 16
  store i32 86400, ptr %12, align 8, !tbaa !26
  %13 = getelementptr inbounds nuw i8, ptr %8, i64 8
  store i64 %0, ptr %13, align 8, !tbaa !29
  store ptr %5, ptr %8, align 8, !tbaa !30
  %14 = getelementptr inbounds nuw i8, ptr %8, i64 24
  store i64 1, ptr %14, align 8, !tbaa !31
  %.not26 = icmp eq i64 %0, 0
  br i1 %.not26, label %._crit_edge, label %.lr.ph

.lr.ph:                                           ; preds = %11, %.lr.ph
  %.025 = phi i64 [ %18, %.lr.ph ], [ 0, %11 ]
  %15 = load ptr, ptr %8, align 8, !tbaa !30
  %16 = getelementptr inbounds nuw %struct.Curl_ssl_scache_peer, ptr %15, i64 %.025, i32 9
  store i64 %1, ptr %16, align 8, !tbaa !32
  %17 = getelementptr inbounds nuw %struct.Curl_ssl_scache_peer, ptr %15, i64 %.025, i32 4
  tail call void @Curl_llist_init(ptr noundef nonnull %17, ptr noundef nonnull @cf_ssl_scache_sesssion_ldestroy) #9
  %18 = add nuw i64 %.025, 1
  %19 = load i64, ptr %13, align 8, !tbaa !29
  %20 = icmp ult i64 %18, %19
  br i1 %20, label %.lr.ph, label %._crit_edge, !llvm.loop !35

._crit_edge:                                      ; preds = %.lr.ph, %11
  store ptr %8, ptr %2, align 8, !tbaa !24
  br label %21

21:                                               ; preds = %3, %._crit_edge, %9
  %.021 = phi i32 [ 0, %._crit_edge ], [ 27, %9 ], [ 27, %3 ]
  ret i32 %.021
}